target datalayout = "e-m:e-p270:32:32-p271:32:32-p272:64:64-i64:64-i128:128-f80:128-n8:16:32:64-S128"
target triple = "x86_64-pc-linux-gnu"

%struct.Aig_Obj_t_ = type { %union.anon, ptr, ptr, i64, i32, i32, %union.anon.0 }
%union.anon = type { ptr }
%union.anon.0 = type { ptr }
%struct.Aig_Man_t_ = type { ptr, ptr, ptr, ptr, ptr, ptr, ptr, %struct.Aig_Obj_t_, i32, i32, i32, i32, i32, i32, [7 x i32], i32, ptr, i32, ptr, i32, ptr, i32, i32, i32, ptr, i32, i32, i32, i32, i32, ptr, ptr, i32, ptr, ptr, i32, ptr, ptr, i32, i32, i32, ptr, ptr, ptr, ptr, ptr, ptr, ptr, ptr, ptr, ptr, ptr, ptr, ptr, ptr, i32, ptr, ptr, ptr, ptr, i32, i64, i64, i64, ptr, ptr }
%struct.Vec_Int_t_ = type { i32, i32, ptr }
%struct.Vec_Ptr_t_ = type { i32, i32, ptr }
%struct.Fra_Man_t_ = type { ptr, ptr, ptr, i32, ptr, i32, ptr, ptr, ptr, i32, ptr, ptr, ptr, ptr, i32, ptr, i64, i64, ptr, ptr, i32, ptr, i32, i32, i32, i32, i32, i32, i32, i32, i32, i32, i32, i32, i32, i32, i32, i32, i32, i32, i32, i64, i64, i64, i64, i64, i64, i64, i64, i64, i64, i64 }

@.str = private unnamed_addr constant [59 x i8] c"Fra_OneHotAssume(): Adding clause makes SAT solver unsat.\0A\00", align 1

; Function Attrs: inlinehint nounwind uwtable
define internal ptr @Vec_PtrEntry(ptr noundef %0, i32 noundef %1) #2 {
  %3 = alloca ptr, align 8
  %4 = alloca i32, align 4
  store ptr %0, ptr %3, align 8, !tbaa !48
  store i32 %1, ptr %4, align 4, !tbaa !18
  %5 = load ptr, ptr %3, align 8, !tbaa !48
  %6 = getelementptr inbounds nuw %struct.Vec_Ptr_t_, ptr %5, i32 0, i32 2
  %7 = load ptr, ptr %6, align 8, !tbaa !51
  %8 = load i32, ptr %4, align 4, !tbaa !18
  %9 = sext i32 %8 to i64
  %10 = getelementptr inbounds ptr, ptr %7, i64 %9
  %11 = load ptr, ptr %10, align 8, !tbaa !52
  ret ptr %11
}

; Function Attrs: inlinehint nounwind uwtable
define internal i32 @toLitCond(i32 noundef %0, i32 noundef %1) #2 {
  %3 = alloca i32, align 4
  %4 = alloca i32, align 4
  store i32 %0, ptr %3, align 4, !tbaa !18
  store i32 %1, ptr %4, align 4, !tbaa !18
  %5 = load i32, ptr %3, align 4, !tbaa !18
  %6 = load i32, ptr %3, align 4, !tbaa !18
  %7 = add nsw i32 %5, %6
  %8 = load i32, ptr %4, align 4, !tbaa !18
  %9 = icmp ne i32 %8, 0
  %10 = zext i1 %9 to i32
  %11 = add nsw i32 %7, %10
  ret i32 %11
}

; Function Attrs: inlinehint nounwind uwtable
define internal i32 @Fra_LitSign(i32 noundef %0) #2 {
  %2 = alloca i32, align 4
  store i32 %0, ptr %2, align 4, !tbaa !18
  %3 = load i32, ptr %2, align 4, !tbaa !18
  %4 = icmp slt i32 %3, 0
  %5 = zext i1 %4 to i32
  ret i32 %5
}

; Function Attrs: inlinehint nounwind uwtable
define internal i32 @Fra_ObjSatNum(ptr noundef %0) #2 {
  %2 = alloca ptr, align 8
  store ptr %0, ptr %2, align 8, !tbaa !8
  %3 = load ptr, ptr %2, align 8, !tbaa !8
  %4 = getelementptr inbounds nuw %struct.Aig_Obj_t_, ptr %3, i32 0, i32 6
  %5 = load ptr, ptr %4, align 8, !tbaa !62
  %6 = getelementptr inbounds nuw %struct.Fra_Man_t_, ptr %5, i32 0, i32 19
  %7 = load ptr, ptr %6, align 8, !tbaa !63
  %8 = load ptr, ptr %2, align 8, !tbaa !8
  %9 = getelementptr inbounds nuw %struct.Aig_Obj_t_, ptr %8, i32 0, i32 5
  %10 = load i32, ptr %9, align 4, !tbaa !10
  %11 = sext i32 %10 to i64
  %12 = getelementptr inbounds i32, ptr %7, i64 %11
  %13 = load i32, ptr %12, align 4, !tbaa !18
  ret i32 %13
}

; Function Attrs: inlinehint nounwind uwtable
define internal ptr @Aig_ManCi(ptr noundef %0, i32 noundef %1) #2 {
  %3 = alloca ptr, align 8
  %4 = alloca i32, align 4
  store ptr %0, ptr %3, align 8, !tbaa !42
  store i32 %1, ptr %4, align 4, !tbaa !18
  %5 = load ptr, ptr %3, align 8, !tbaa !42
  %6 = getelementptr inbounds nuw %struct.Aig_Man_t_, ptr %5, i32 0, i32 2
  %7 = load ptr, ptr %6, align 8, !tbaa !31
  %8 = load i32, ptr %4, align 4, !tbaa !18
  %9 = call ptr @Vec_PtrEntry(ptr noundef %7, i32 noundef %8)
  ret ptr %9
}

; Function Attrs: inlinehint nounwind uwtable
define internal i32 @Fra_LitReg(i32 noundef %0) #2 {
  %2 = alloca i32, align 4
  store i32 %0, ptr %2, align 4, !tbaa !18
  %3 = load i32, ptr %2, align 4, !tbaa !18
  %4 = icmp sgt i32 %3, 0
  br i1 %4, label %5, label %8

5:                                                ; preds = %1
  %6 = load i32, ptr %2, align 4, !tbaa !18
  %7 = sub nsw i32 %6, 1
  br label %12

8:                                                ; preds = %1
  %9 = load i32, ptr %2, align 4, !tbaa !18
  %10 = sub nsw i32 0, %9
  %11 = sub nsw i32 %10, 1
  br label %12

12:                                               ; preds = %8, %5
  %13 = phi i32 [ %7, %5 ], [ %11, %8 ]
  ret i32 %13
}

; Function Attrs: inlinehint nounwind uwtable
define internal i32 @Vec_IntEntry(ptr noundef %0, i32 noundef %1) #2 {
  %3 = alloca ptr, align 8
  %4 = alloca i32, align 4
  store ptr %0, ptr %3, align 8, !tbaa !29
  store i32 %1, ptr %4, align 4, !tbaa !18
  %5 = load ptr, ptr %3, align 8, !tbaa !29
  %6 = getelementptr inbounds nuw %struct.Vec_Int_t_, ptr %5, i32 0, i32 2
  %7 = load ptr, ptr %6, align 8, !tbaa !47
  %8 = load i32, ptr %4, align 4, !tbaa !18
  %9 = sext i32 %8 to i64
  %10 = getelementptr inbounds i32, ptr %7, i64 %9
  %11 = load i32, ptr %10, align 4, !tbaa !18
  ret i32 %11
}

; Function Attrs: inlinehint nounwind uwtable
define internal i32 @Vec_IntSize(ptr noundef %0) #2 {
  %2 = alloca ptr, align 8
  store ptr %0, ptr %2, align 8, !tbaa !29
  %3 = load ptr, ptr %2, align 8, !tbaa !29
  %4 = getelementptr inbounds nuw %struct.Vec_Int_t_, ptr %3, i32 0, i32 1
  %5 = load i32, ptr %4, align 4, !tbaa !44
  ret i32 %5
}

; Function Attrs: inlinehint nounwind uwtable
define internal i32 @Aig_ManRegNum(ptr noundef %0) #2 {
  %2 = alloca ptr, align 8
  store ptr %0, ptr %2, align 8, !tbaa !42
  %3 = load ptr, ptr %2, align 8, !tbaa !42
  %4 = getelementptr inbounds nuw %struct.Aig_Man_t_, ptr %3, i32 0, i32 8
  %5 = load i32, ptr %4, align 8, !tbaa !43
  ret i32 %5
}

; Function Attrs: inlinehint nounwind uwtable
define internal i32 @Aig_ManCiNum(ptr noundef %0) #2 {
  %2 = alloca ptr, align 8
  store ptr %0, ptr %2, align 8, !tbaa !42
  %3 = load ptr, ptr %2, align 8, !tbaa !42
  %4 = getelementptr inbounds nuw %struct.Aig_Man_t_, ptr %3, i32 0, i32 14
  %5 = getelementptr inbounds [7 x i32], ptr %4, i64 0, i64 2
  %6 = load i32, ptr %5, align 8, !tbaa !18
  ret i32 %6
}

; Function Attrs: nounwind uwtable
define void @Fra_OneHotAssume(ptr noundef %0, ptr noundef %1) #0 {
  %3 = alloca ptr, align 8
  %4 = alloca ptr, align 8
  %5 = alloca ptr, align 8
  %6 = alloca ptr, align 8
  %7 = alloca i32, align 4
  %8 = alloca i32, align 4
  %9 = alloca i32, align 4
  %10 = alloca [2 x i32], align 4
  %11 = alloca i32, align 4
  %12 = alloca i32, align 4
  store ptr %0, ptr %3, align 8, !tbaa !26
  store ptr %1, ptr %4, align 8, !tbaa !29
  call void @llvm.lifetime.start.p0(i64 8, ptr %5) #10
  call void @llvm.lifetime.start.p0(i64 8, ptr %6) #10
  call void @llvm.lifetime.start.p0(i64 4, ptr %7) #10
  call void @llvm.lifetime.start.p0(i64 4, ptr %8) #10
  call void @llvm.lifetime.start.p0(i64 4, ptr %9) #10
  call void @llvm.lifetime.start.p0(i64 8, ptr %10) #10
  call void @llvm.lifetime.start.p0(i64 4, ptr %11) #10
  %13 = load ptr, ptr %3, align 8, !tbaa !26
  %14 = getelementptr inbounds nuw %struct.Fra_Man_t_, ptr %13, i32 0, i32 2
  %15 = load ptr, ptr %14, align 8, !tbaa !53
  %16 = call i32 @Aig_ManCiNum(ptr noundef %15)
  %17 = load ptr, ptr %3, align 8, !tbaa !26
  %18 = getelementptr inbounds nuw %struct.Fra_Man_t_, ptr %17, i32 0, i32 2
  %19 = load ptr, ptr %18, align 8, !tbaa !53
  %20 = call i32 @Aig_ManRegNum(ptr noundef %19)
  %21 = sub nsw i32 %16, %20
  store i32 %21, ptr %11, align 4, !tbaa !18
  store i32 0, ptr %7, align 4, !tbaa !18
  br label %22

22:                                               ; preds = %86, %2
  %23 = load i32, ptr %7, align 4, !tbaa !18
  %24 = load ptr, ptr %4, align 8, !tbaa !29
  %25 = call i32 @Vec_IntSize(ptr noundef %24)
  %26 = icmp slt i32 %23, %25
  br i1 %26, label %27, label %89

27:                                               ; preds = %22
  %28 = load ptr, ptr %4, align 8, !tbaa !29
  %29 = load i32, ptr %7, align 4, !tbaa !18
  %30 = call i32 @Vec_IntEntry(ptr noundef %28, i32 noundef %29)
  store i32 %30, ptr %8, align 4, !tbaa !18
  %31 = load ptr, ptr %4, align 8, !tbaa !29
  %32 = load i32, ptr %7, align 4, !tbaa !18
  %33 = add nsw i32 %32, 1
  %34 = call i32 @Vec_IntEntry(ptr noundef %31, i32 noundef %33)
  store i32 %34, ptr %9, align 4, !tbaa !18
  %35 = load i32, ptr %8, align 4, !tbaa !18
  %36 = icmp eq i32 %35, 0
  br i1 %36, label %37, label %41

37:                                               ; preds = %27
  %38 = load i32, ptr %9, align 4, !tbaa !18
  %39 = icmp eq i32 %38, 0
  br i1 %39, label %40, label %41

40:                                               ; preds = %37
  br label %86

41:                                               ; preds = %37, %27
  %42 = load ptr, ptr %3, align 8, !tbaa !26
  %43 = getelementptr inbounds nuw %struct.Fra_Man_t_, ptr %42, i32 0, i32 2
  %44 = load ptr, ptr %43, align 8, !tbaa !53
  %45 = load i32, ptr %11, align 4, !tbaa !18
  %46 = load i32, ptr %8, align 4, !tbaa !18
  %47 = call i32 @Fra_LitReg(i32 noundef %46)
  %48 = add nsw i32 %45, %47
  %49 = call ptr @Aig_ManCi(ptr noundef %44, i32 noundef %48)
  store ptr %49, ptr %5, align 8, !tbaa !8
  %50 = load ptr, ptr %3, align 8, !tbaa !26
  %51 = getelementptr inbounds nuw %struct.Fra_Man_t_, ptr %50, i32 0, i32 2
  %52 = load ptr, ptr %51, align 8, !tbaa !53
  %53 = load i32, ptr %11, align 4, !tbaa !18
  %54 = load i32, ptr %9, align 4, !tbaa !18
  %55 = call i32 @Fra_LitReg(i32 noundef %54)
  %56 = add nsw i32 %53, %55
  %57 = call ptr @Aig_ManCi(ptr noundef %52, i32 noundef %56)
  store ptr %57, ptr %6, align 8, !tbaa !8
  %58 = load ptr, ptr %5, align 8, !tbaa !8
  %59 = call i32 @Fra_ObjSatNum(ptr noundef %58)
  %60 = load i32, ptr %8, align 4, !tbaa !18
  %61 = call i32 @Fra_LitSign(i32 noundef %60)
  %62 = call i32 @toLitCond(i32 noundef %59, i32 noundef %61)
  %63 = getelementptr inbounds [2 x i32], ptr %10, i64 0, i64 0
  store i32 %62, ptr %63, align 4, !tbaa !18
  %64 = load ptr, ptr %6, align 8, !tbaa !8
  %65 = call i32 @Fra_ObjSatNum(ptr noundef %64)
  %66 = load i32, ptr %9, align 4, !tbaa !18
  %67 = call i32 @Fra_LitSign(i32 noundef %66)
  %68 = call i32 @toLitCond(i32 noundef %65, i32 noundef %67)
  %69 = getelementptr inbounds [2 x i32], ptr %10, i64 0, i64 1
  store i32 %68, ptr %69, align 4, !tbaa !18
  %70 = load ptr, ptr %3, align 8, !tbaa !26
  %71 = getelementptr inbounds nuw %struct.Fra_Man_t_, ptr %70, i32 0, i32 13
  %72 = load ptr, ptr %71, align 8, !tbaa !60
  %73 = getelementptr inbounds [2 x i32], ptr %10, i64 0, i64 0
  %74 = getelementptr inbounds [2 x i32], ptr %10, i64 0, i64 0
  %75 = getelementptr inbounds i32, ptr %74, i64 2
  %76 = call i32 @sat_solver_addclause(ptr noundef %72, ptr noundef %73, ptr noundef %75)
  %77 = icmp ne i32 %76, 0
  br i1 %77, label %85, label %78

78:                                               ; preds = %41
  %79 = call i32 (ptr, ...) @printf(ptr noundef @.str)
  %80 = load ptr, ptr %3, align 8, !tbaa !26
  %81 = getelementptr inbounds nuw %struct.Fra_Man_t_, ptr %80, i32 0, i32 13
  %82 = load ptr, ptr %81, align 8, !tbaa !60
  call void @sat_solver_delete(ptr noundef %82)
  %83 = load ptr, ptr %3, align 8, !tbaa !26
  %84 = getelementptr inbounds nuw %struct.Fra_Man_t_, ptr %83, i32 0, i32 13
  store ptr null, ptr %84, align 8, !tbaa !60
  store i32 1, ptr %12, align 4
  br label %90

85:                                               ; preds = %41
  br label %86

86:                                               ; preds = %85, %40
  %87 = load i32, ptr %7, align 4, !tbaa !18
  %88 = add nsw i32 %87, 2
  store i32 %88, ptr %7, align 4, !tbaa !18
  br label %22, !llvm.loop !61

89:                                               ; preds = %22
  store i32 0, ptr %12, align 4
  br label %90

90:                                               ; preds = %89, %78
  call void @llvm.lifetime.end.p0(i64 4, ptr %11) #10
  call void @llvm.lifetime.end.p0(i64 8, ptr %10) #10
  call void @llvm.lifetime.end.p0(i64 4, ptr %9) #10
  call void @llvm.lifetime.end.p0(i64 4, ptr %8) #10
  call void @llvm.lifetime.end.p0(i64 4, ptr %7) #10
  call void @llvm.lifetime.end.p0(i64 8, ptr %6) #10
  call void @llvm.lifetime.end.p0(i64 8, ptr %5) #10
  %91 = load i32, ptr %12, align 4
  switch i32 %91, label %93 [
    i32 0, label %92
    i32 1, label %92
  ]

92:                                               ; preds = %90, %90
  ret void

93:                                               ; preds = %90
  unreachable
}