; Function Attrs: nounwind uwtable
define void @Fra_OneHotAssume(ptr noundef captures(none) %0, ptr noundef readonly captures(none) %1) local_unnamed_addr #2 {
  %3 = alloca [2 x i32], align 4
  call void @llvm.lifetime.start.p0(i64 8, ptr nonnull %3) #19
  %4 = getelementptr inbounds nuw i8, ptr %0, i64 16
  %5 = load ptr, ptr %4, align 8, !tbaa !45
  %6 = getelementptr i8, ptr %5, i64 136
  %.val = load i32, ptr %6, align 8, !tbaa !16
  %7 = getelementptr i8, ptr %5, i64 104
  %.val24 = load i32, ptr %7, align 8, !tbaa !22
  %8 = sub nsw i32 %.val, %.val24
  %9 = getelementptr i8, ptr %1, i64 4
  %.val2535 = load i32, ptr %9, align 4, !tbaa !33
  %10 = icmp sgt i32 %.val2535, 0
  br i1 %10, label %.lr.ph, label %.loopexit

.lr.ph:                                           ; preds = %2
  %11 = getelementptr i8, ptr %1, i64 8
  %12 = getelementptr inbounds nuw i8, ptr %3, i64 4
  %13 = getelementptr inbounds nuw i8, ptr %0, i64 104
  %14 = getelementptr inbounds nuw i8, ptr %3, i64 8
  br label %15

15:                                               ; preds = %.lr.ph, %61
  %.val2538 = phi i32 [ %.val2535, %.lr.ph ], [ %.val25, %61 ]
  %indvars.iv = phi i64 [ 0, %.lr.ph ], [ %indvars.iv.next, %61 ]
  %.val26 = load ptr, ptr %11, align 8, !tbaa !36
  %16 = getelementptr inbounds nuw i32, ptr %.val26, i64 %indvars.iv
  %17 = load i32, ptr %16, align 4, !tbaa !16
  %18 = or disjoint i64 %indvars.iv, 1
  %19 = getelementptr inbounds nuw i32, ptr %.val26, i64 %18
  %20 = load i32, ptr %19, align 4, !tbaa !16
  %21 = icmp eq i32 %17, 0
  %22 = icmp eq i32 %20, 0
  %or.cond = select i1 %21, i1 %22, i1 false
  br i1 %or.cond, label %61, label %23

23:                                               ; preds = %15
  %24 = load ptr, ptr %4, align 8, !tbaa !45
  %25 = icmp sgt i32 %17, 0
  %26 = add nsw i32 %17, -1
  %27 = xor i32 %17, -1
  %28 = select i1 %25, i32 %26, i32 %27
  %29 = add nsw i32 %28, %8
  %30 = getelementptr i8, ptr %24, i64 16
  %.val28 = load ptr, ptr %30, align 8, !tbaa !37
  %31 = getelementptr i8, ptr %.val28, i64 8
  %.val28.val = load ptr, ptr %31, align 8, !tbaa !40
  %32 = sext i32 %29 to i64
  %33 = getelementptr inbounds ptr, ptr %.val28.val, i64 %32
  %34 = load ptr, ptr %33, align 8, !tbaa !41
  %35 = icmp sgt i32 %20, 0
  %36 = add nsw i32 %20, -1
  %37 = xor i32 %20, -1
  %38 = select i1 %35, i32 %36, i32 %37
  %39 = add nsw i32 %38, %8
  %40 = sext i32 %39 to i64
  %41 = getelementptr inbounds ptr, ptr %.val28.val, i64 %40
  %42 = load ptr, ptr %41, align 8, !tbaa !41
  %43 = getelementptr i8, ptr %34, i64 36
  %.val30 = load i32, ptr %43, align 4, !tbaa !3
  %44 = getelementptr i8, ptr %34, i64 40
  %.val31 = load ptr, ptr %44, align 8, !tbaa !53
  %45 = getelementptr i8, ptr %.val31, i64 152
  %.val31.val = load ptr, ptr %45, align 8, !tbaa !54
  %46 = sext i32 %.val30 to i64
  %47 = getelementptr inbounds i32, ptr %.val31.val, i64 %46
  %48 = load i32, ptr %47, align 4, !tbaa !16
  %49 = call i32 @llvm.fshl.i32(i32 %48, i32 %17, i32 1)
  store i32 %49, ptr %3, align 4, !tbaa !16
  %50 = getelementptr i8, ptr %42, i64 36
  %.val32 = load i32, ptr %50, align 4, !tbaa !3
  %51 = getelementptr i8, ptr %42, i64 40
  %.val33 = load ptr, ptr %51, align 8, !tbaa !53
  %52 = getelementptr i8, ptr %.val33, i64 152
  %.val33.val = load ptr, ptr %52, align 8, !tbaa !54
  %53 = sext i32 %.val32 to i64
  %54 = getelementptr inbounds i32, ptr %.val33.val, i64 %53
  %55 = load i32, ptr %54, align 4, !tbaa !16
  %56 = call i32 @llvm.fshl.i32(i32 %55, i32 %20, i32 1)
  store i32 %56, ptr %12, align 4, !tbaa !16
  %57 = load ptr, ptr %13, align 8, !tbaa !55
  %58 = call i32 @sat_solver_addclause(ptr noundef %57, ptr noundef nonnull %3, ptr noundef nonnull %14) #19
  %.not = icmp eq i32 %58, 0
  br i1 %.not, label %59, label %._crit_edge

._crit_edge:                                      ; preds = %23
  %.val25.pre = load i32, ptr %9, align 4, !tbaa !33
  br label %61

59:                                               ; preds = %23
  %puts = call i32 @puts(ptr nonnull dereferenceable(1) @str)
  %60 = load ptr, ptr %13, align 8, !tbaa !55
  call void @sat_solver_delete(ptr noundef %60) #19
  store ptr null, ptr %13, align 8, !tbaa !55
  br label %.loopexit

61:                                               ; preds = %._crit_edge, %15
  %.val25 = phi i32 [ %.val25.pre, %._crit_edge ], [ %.val2538, %15 ]
  %indvars.iv.next = add nuw nsw i64 %indvars.iv, 2
  %62 = trunc nuw i64 %indvars.iv.next to i32
  %63 = icmp sgt i32 %.val25, %62
  br i1 %63, label %15, label %.loopexit, !llvm.loop !56

.loopexit:                                        ; preds = %61, %2, %59
  call void @llvm.lifetime.end.p0(i64 8, ptr nonnull %3) #19
  ret void
}